target datalayout = "e-m:e-p270:32:32-p271:32:32-p272:64:64-i64:64-i128:128-f80:128-n8:16:32:64-S128"
target triple = "x86_64-pc-linux-gnu"

@.str.228 = private unnamed_addr constant [15 x i8] c"[LibClamAV] %s\00", align 1

; Function Attrs: nounwind uwtable
define internal void @libclamav_msg_callback_quiet(i32 noundef %0, ptr noundef %1, ptr noundef %2, ptr noundef %3) #0 {
  %5 = alloca i32, align 4
  %6 = alloca ptr, align 8
  %7 = alloca ptr, align 8
  %8 = alloca ptr, align 8
  store i32 %0, ptr %5, align 4
  store ptr %1, ptr %6, align 8
  store ptr %2, ptr %7, align 8
  store ptr %3, ptr %8, align 8
  %9 = load i32, ptr %5, align 4
  switch i32 %9, label %13 [
    i32 128, label %10
  ]

10:                                               ; preds = %4
  %11 = load ptr, ptr %7, align 8
  %12 = call i32 (i32, ptr, ...) @logg(i32 noundef 4, ptr noundef @.str.228, ptr noundef %11)
  br label %14

13:                                               ; preds = %4
  br label %14

14:                                               ; preds = %13, %10
  ret void
}