; Function Attrs: nounwind uwtable
define internal void @libclamav_msg_callback_quiet(i32 noundef %0, ptr nocapture readnone %1, ptr noundef %2, ptr nocapture readnone %3) #0 {
  %cond = icmp eq i32 %0, 128
  br i1 %cond, label %5, label %7

5:                                                ; preds = %4
  %6 = tail call i32 (i32, ptr, ...) @logg(i32 noundef 4, ptr noundef nonnull @.str.228, ptr noundef %2) #17
  br label %7

7:                                                ; preds = %4, %5
  ret void
}